target datalayout = "e-m:e-p270:32:32-p271:32:32-p272:64:64-i64:64-i128:128-f80:128-n8:16:32:64-S128"
target triple = "x86_64-pc-linux-gnu"

%struct.Bal_Man_t_ = type { ptr, i32, i32, i32, i32, ptr, ptr, ptr, i64 }
%struct.Gia_Man_t_ = type { ptr, ptr, i32, i32, i32, i32, ptr, ptr, i32, i32, i32, ptr, ptr, %struct.Vec_Int_t_, %struct.Vec_Int_t_, i32, i32, i32, %struct.Vec_Int_t_, ptr, ptr, ptr, i32, i32, i32, i32, ptr, ptr, ptr, ptr, ptr, i32, i32, ptr, i32, ptr, ptr, ptr, ptr, ptr, ptr, ptr, ptr, ptr, ptr, ptr, ptr, ptr, ptr, ptr, ptr, ptr, ptr, %struct.Vec_Int_t_, %struct.Vec_Int_t_, ptr, ptr, ptr, ptr, ptr, ptr, ptr, ptr, ptr, ptr, ptr, ptr, ptr, ptr, ptr, ptr, ptr, ptr, ptr, ptr, ptr, i32, float, float, ptr, ptr, i32, ptr, ptr, ptr, ptr, ptr, ptr, ptr, ptr, ptr, ptr, ptr, ptr, ptr, ptr, ptr, i64, i64, ptr, ptr, i32, i32, i32, i32, i32, i32, i32, i32, i32, i32, i32, i32, ptr, ptr, ptr, ptr, ptr, ptr, ptr, ptr, i32, i32, i32, ptr, i32, i32, ptr, ptr, ptr, ptr, ptr, ptr, i32, i32, ptr, %struct.Vec_Int_t_, %struct.Vec_Int_t_, %struct.Vec_Int_t_, ptr, ptr, ptr }
%struct.Vec_Int_t_ = type { i32, i32, ptr }
%struct.Vec_Ptr_t_ = type { i32, i32, ptr }
%struct.Gia_Obj_t_ = type <{ i64, i32 }>

; Function Attrs: nounwind uwtable
define internal i32 @Vec_IntEntry(ptr noundef %0, i32 noundef %1) #0 {
  %3 = alloca ptr, align 8
  %4 = alloca i32, align 4
  store ptr %0, ptr %3, align 8
  store i32 %1, ptr %4, align 4
  %5 = load ptr, ptr %3, align 8
  %6 = getelementptr inbounds %struct.Vec_Int_t_, ptr %5, i32 0, i32 2
  %7 = load ptr, ptr %6, align 8
  %8 = load i32, ptr %4, align 4
  %9 = sext i32 %8 to i64
  %10 = getelementptr inbounds i32, ptr %7, i64 %9
  %11 = load i32, ptr %10, align 4
  ret i32 %11
}

; Function Attrs: nounwind uwtable
define internal i32 @Gia_ObjIsAnd(ptr noundef %0) #0 {
  %2 = alloca ptr, align 8
  store ptr %0, ptr %2, align 8
  %3 = load ptr, ptr %2, align 8
  %4 = load i64, ptr %3, align 4
  %5 = lshr i64 %4, 31
  %6 = and i64 %5, 1
  %7 = trunc i64 %6 to i32
  %8 = icmp ne i32 %7, 0
  br i1 %8, label %15, label %9

9:                                                ; preds = %1
  %10 = load ptr, ptr %2, align 8
  %11 = load i64, ptr %10, align 4
  %12 = and i64 %11, 536870911
  %13 = trunc i64 %12 to i32
  %14 = icmp ne i32 %13, 536870911
  br label %15

15:                                               ; preds = %9, %1
  %16 = phi i1 [ false, %1 ], [ %14, %9 ]
  %17 = zext i1 %16 to i32
  ret i32 %17
}

; Function Attrs: nounwind uwtable
define internal i32 @Bal_ObjCost(ptr noundef %0, i32 noundef %1) #0 {
  %3 = alloca ptr, align 8
  %4 = alloca i32, align 4
  store ptr %0, ptr %3, align 8
  store i32 %1, ptr %4, align 4
  %5 = load ptr, ptr %3, align 8
  %6 = getelementptr inbounds %struct.Bal_Man_t_, ptr %5, i32 0, i32 6
  %7 = load ptr, ptr %6, align 8
  %8 = load i32, ptr %4, align 4
  %9 = call i32 @Vec_IntEntry(ptr noundef %7, i32 noundef %8)
  ret i32 %9
}

; Function Attrs: nounwind uwtable
define internal i32 @Abc_LitIsCompl(i32 noundef %0) #0 {
  %2 = alloca i32, align 4
  store i32 %0, ptr %2, align 4
  %3 = load i32, ptr %2, align 4
  %4 = and i32 %3, 1
  ret i32 %4
}

; Function Attrs: nounwind uwtable
define internal i32 @Gia_ObjIsMuxId(ptr noundef %0, i32 noundef %1) #0 {
  %3 = alloca ptr, align 8
  %4 = alloca i32, align 4
  store ptr %0, ptr %3, align 8
  store i32 %1, ptr %4, align 4
  %5 = load ptr, ptr %3, align 8
  %6 = getelementptr inbounds %struct.Gia_Man_t_, ptr %5, i32 0, i32 7
  %7 = load ptr, ptr %6, align 8
  %8 = icmp ne ptr %7, null
  br i1 %8, label %9, label %18

9:                                                ; preds = %2
  %10 = load ptr, ptr %3, align 8
  %11 = getelementptr inbounds %struct.Gia_Man_t_, ptr %10, i32 0, i32 7
  %12 = load ptr, ptr %11, align 8
  %13 = load i32, ptr %4, align 4
  %14 = sext i32 %13 to i64
  %15 = getelementptr inbounds i32, ptr %12, i64 %14
  %16 = load i32, ptr %15, align 4
  %17 = icmp ugt i32 %16, 0
  br label %18

18:                                               ; preds = %9, %2
  %19 = phi i1 [ false, %2 ], [ %17, %9 ]
  %20 = zext i1 %19 to i32
  ret i32 %20
}

; Function Attrs: nounwind uwtable
define internal i32 @Gia_ObjId(ptr noundef %0, ptr noundef %1) #0 {
  %3 = alloca ptr, align 8
  %4 = alloca ptr, align 8
  store ptr %0, ptr %3, align 8
  store ptr %1, ptr %4, align 8
  %5 = load ptr, ptr %4, align 8
  %6 = load ptr, ptr %3, align 8
  %7 = getelementptr inbounds %struct.Gia_Man_t_, ptr %6, i32 0, i32 6
  %8 = load ptr, ptr %7, align 8
  %9 = ptrtoint ptr %5 to i64
  %10 = ptrtoint ptr %8 to i64
  %11 = sub i64 %9, %10
  %12 = sdiv exact i64 %11, 12
  %13 = trunc i64 %12 to i32
  ret i32 %13
}

; Function Attrs: nounwind uwtable
define internal i32 @Gia_ObjIsXor(ptr noundef %0) #0 {
  %2 = alloca ptr, align 8
  store ptr %0, ptr %2, align 8
  %3 = load ptr, ptr %2, align 8
  %4 = call i32 @Gia_ObjIsAnd(ptr noundef %3)
  %5 = icmp ne i32 %4, 0
  br i1 %5, label %6, label %17

6:                                                ; preds = %1
  %7 = load ptr, ptr %2, align 8
  %8 = load i64, ptr %7, align 4
  %9 = and i64 %8, 536870911
  %10 = trunc i64 %9 to i32
  %11 = load ptr, ptr %2, align 8
  %12 = load i64, ptr %11, align 4
  %13 = lshr i64 %12, 32
  %14 = and i64 %13, 536870911
  %15 = trunc i64 %14 to i32
  %16 = icmp slt i32 %10, %15
  br label %17

17:                                               ; preds = %6, %1
  %18 = phi i1 [ false, %1 ], [ %16, %6 ]
  %19 = zext i1 %18 to i32
  ret i32 %19
}

; Function Attrs: nounwind uwtable
define internal i32 @Abc_MaxInt(i32 noundef %0, i32 noundef %1) #0 {
  %3 = alloca i32, align 4
  %4 = alloca i32, align 4
  store i32 %0, ptr %3, align 4
  store i32 %1, ptr %4, align 4
  %5 = load i32, ptr %3, align 4
  %6 = load i32, ptr %4, align 4
  %7 = icmp sgt i32 %5, %6
  br i1 %7, label %8, label %10

8:                                                ; preds = %2
  %9 = load i32, ptr %3, align 4
  br label %12

10:                                               ; preds = %2
  %11 = load i32, ptr %4, align 4
  br label %12

12:                                               ; preds = %10, %8
  %13 = phi i32 [ %9, %8 ], [ %11, %10 ]
  ret i32 %13
}

; Function Attrs: nounwind uwtable
define internal i32 @Bal_ObjDelay(ptr noundef %0, i32 noundef %1) #0 {
  %3 = alloca ptr, align 8
  %4 = alloca i32, align 4
  store ptr %0, ptr %3, align 8
  store i32 %1, ptr %4, align 4
  %5 = load ptr, ptr %3, align 8
  %6 = load i32, ptr %4, align 4
  %7 = call i32 @Bal_ObjCost(ptr noundef %5, i32 noundef %6)
  %8 = ashr i32 %7, 4
  ret i32 %8
}

; Function Attrs: nounwind uwtable
define internal i32 @Gia_ObjFaninC2(ptr noundef %0, ptr noundef %1) #0 {
  %3 = alloca ptr, align 8
  %4 = alloca ptr, align 8
  store ptr %0, ptr %3, align 8
  store ptr %1, ptr %4, align 8
  %5 = load ptr, ptr %3, align 8
  %6 = getelementptr inbounds %struct.Gia_Man_t_, ptr %5, i32 0, i32 7
  %7 = load ptr, ptr %6, align 8
  %8 = icmp ne ptr %7, null
  br i1 %8, label %9, label %21

9:                                                ; preds = %2
  %10 = load ptr, ptr %3, align 8
  %11 = getelementptr inbounds %struct.Gia_Man_t_, ptr %10, i32 0, i32 7
  %12 = load ptr, ptr %11, align 8
  %13 = load ptr, ptr %3, align 8
  %14 = load ptr, ptr %4, align 8
  %15 = call i32 @Gia_ObjId(ptr noundef %13, ptr noundef %14)
  %16 = sext i32 %15 to i64
  %17 = getelementptr inbounds i32, ptr %12, i64 %16
  %18 = load i32, ptr %17, align 4
  %19 = call i32 @Abc_LitIsCompl(i32 noundef %18)
  %20 = icmp ne i32 %19, 0
  br label %21

21:                                               ; preds = %9, %2
  %22 = phi i1 [ false, %2 ], [ %20, %9 ]
  %23 = zext i1 %22 to i32
  ret i32 %23
}

; Function Attrs: nounwind uwtable
define internal i32 @Gia_ObjFaninC1(ptr noundef %0) #0 {
  %2 = alloca ptr, align 8
  store ptr %0, ptr %2, align 8
  %3 = load ptr, ptr %2, align 8
  %4 = load i64, ptr %3, align 4
  %5 = lshr i64 %4, 61
  %6 = and i64 %5, 1
  %7 = trunc i64 %6 to i32
  ret i32 %7
}

; Function Attrs: nounwind uwtable
define internal i32 @Gia_ObjFaninC0(ptr noundef %0) #0 {
  %2 = alloca ptr, align 8
  store ptr %0, ptr %2, align 8
  %3 = load ptr, ptr %2, align 8
  %4 = load i64, ptr %3, align 4
  %5 = lshr i64 %4, 29
  %6 = and i64 %5, 1
  %7 = trunc i64 %6 to i32
  ret i32 %7
}

; Function Attrs: nounwind uwtable
define internal i32 @Gia_ObjFaninId2(ptr noundef %0, i32 noundef %1) #0 {
  %3 = alloca ptr, align 8
  %4 = alloca i32, align 4
  store ptr %0, ptr %3, align 8
  store i32 %1, ptr %4, align 4
  %5 = load ptr, ptr %3, align 8
  %6 = getelementptr inbounds %struct.Gia_Man_t_, ptr %5, i32 0, i32 7
  %7 = load ptr, ptr %6, align 8
  %8 = icmp ne ptr %7, null
  br i1 %8, label %9, label %27

9:                                                ; preds = %2
  %10 = load ptr, ptr %3, align 8
  %11 = getelementptr inbounds %struct.Gia_Man_t_, ptr %10, i32 0, i32 7
  %12 = load ptr, ptr %11, align 8
  %13 = load i32, ptr %4, align 4
  %14 = sext i32 %13 to i64
  %15 = getelementptr inbounds i32, ptr %12, i64 %14
  %16 = load i32, ptr %15, align 4
  %17 = icmp ne i32 %16, 0
  br i1 %17, label %18, label %27

18:                                               ; preds = %9
  %19 = load ptr, ptr %3, align 8
  %20 = getelementptr inbounds %struct.Gia_Man_t_, ptr %19, i32 0, i32 7
  %21 = load ptr, ptr %20, align 8
  %22 = load i32, ptr %4, align 4
  %23 = sext i32 %22 to i64
  %24 = getelementptr inbounds i32, ptr %21, i64 %23
  %25 = load i32, ptr %24, align 4
  %26 = call i32 @Abc_Lit2Var(i32 noundef %25)
  br label %28

27:                                               ; preds = %9, %2
  br label %28

28:                                               ; preds = %27, %18
  %29 = phi i32 [ %26, %18 ], [ -1, %27 ]
  ret i32 %29
}

; Function Attrs: nounwind uwtable
define internal i32 @Gia_ObjFaninId1(ptr noundef %0, i32 noundef %1) #0 {
  %3 = alloca ptr, align 8
  %4 = alloca i32, align 4
  store ptr %0, ptr %3, align 8
  store i32 %1, ptr %4, align 4
  %5 = load i32, ptr %4, align 4
  %6 = load ptr, ptr %3, align 8
  %7 = load i64, ptr %6, align 4
  %8 = lshr i64 %7, 32
  %9 = and i64 %8, 536870911
  %10 = trunc i64 %9 to i32
  %11 = sub nsw i32 %5, %10
  ret i32 %11
}

; Function Attrs: nounwind uwtable
define internal i32 @Gia_ObjFaninId0(ptr noundef %0, i32 noundef %1) #0 {
  %3 = alloca ptr, align 8
  %4 = alloca i32, align 4
  store ptr %0, ptr %3, align 8
  store i32 %1, ptr %4, align 4
  %5 = load i32, ptr %4, align 4
  %6 = load ptr, ptr %3, align 8
  %7 = load i64, ptr %6, align 4
  %8 = and i64 %7, 536870911
  %9 = trunc i64 %8 to i32
  %10 = sub nsw i32 %5, %9
  ret i32 %10
}

; Function Attrs: nounwind uwtable
define internal i32 @Vec_PtrSize(ptr noundef %0) #0 {
  %2 = alloca ptr, align 8
  store ptr %0, ptr %2, align 8
  %3 = load ptr, ptr %2, align 8
  %4 = getelementptr inbounds %struct.Vec_Ptr_t_, ptr %3, i32 0, i32 1
  %5 = load i32, ptr %4, align 4
  ret i32 %5
}

; Function Attrs: nounwind uwtable
define internal i32 @Gia_ObjIsMux(ptr noundef %0, ptr noundef %1) #0 {
  %3 = alloca ptr, align 8
  %4 = alloca ptr, align 8
  store ptr %0, ptr %3, align 8
  store ptr %1, ptr %4, align 8
  %5 = load ptr, ptr %3, align 8
  %6 = load ptr, ptr %3, align 8
  %7 = load ptr, ptr %4, align 8
  %8 = call i32 @Gia_ObjId(ptr noundef %6, ptr noundef %7)
  %9 = call i32 @Gia_ObjIsMuxId(ptr noundef %5, i32 noundef %8)
  ret i32 %9
}

; Function Attrs: nounwind uwtable
define internal ptr @Gia_ManObj(ptr noundef %0, i32 noundef %1) #0 {
  %3 = alloca ptr, align 8
  %4 = alloca i32, align 4
  store ptr %0, ptr %3, align 8
  store i32 %1, ptr %4, align 4
  %5 = load ptr, ptr %3, align 8
  %6 = getelementptr inbounds %struct.Gia_Man_t_, ptr %5, i32 0, i32 6
  %7 = load ptr, ptr %6, align 8
  %8 = load i32, ptr %4, align 4
  %9 = sext i32 %8 to i64
  %10 = getelementptr inbounds %struct.Gia_Obj_t_, ptr %7, i64 %9
  ret ptr %10
}

; Function Attrs: nounwind uwtable
define internal i32 @Abc_Lit2Var(i32 noundef %0) #0 {
  %2 = alloca i32, align 4
  store i32 %0, ptr %2, align 4
  %3 = load i32, ptr %2, align 4
  %4 = ashr i32 %3, 1
  ret i32 %4
}

; Function Attrs: nounwind uwtable
define i32 @Bal_ManSetGateLevel(ptr noundef %0, ptr noundef %1, i32 noundef %2) #0 {
  %4 = alloca i32, align 4
  %5 = alloca ptr, align 8
  %6 = alloca ptr, align 8
  %7 = alloca i32, align 4
  %8 = alloca i32, align 4
  %9 = alloca i32, align 4
  %10 = alloca i32, align 4
  %11 = alloca i32, align 4
  %12 = alloca i32, align 4
  %13 = alloca i32, align 4
  %14 = alloca i32, align 4
  %15 = alloca i32, align 4
  %16 = alloca i32, align 4
  %17 = alloca i32, align 4
  %18 = alloca i32, align 4
  %19 = alloca i32, align 4
  %20 = alloca i32, align 4
  %21 = alloca i32, align 4
  %22 = alloca i32, align 4
  %23 = alloca ptr, align 8
  %24 = alloca i32, align 4
  store ptr %0, ptr %5, align 8
  store ptr %1, ptr %6, align 8
  store i32 %2, ptr %7, align 4
  %25 = load i32, ptr %7, align 4
  %26 = call i32 @Abc_Lit2Var(i32 noundef %25)
  store i32 %26, ptr %22, align 4
  %27 = load ptr, ptr %5, align 8
  %28 = getelementptr inbounds %struct.Bal_Man_t_, ptr %27, i32 0, i32 5
  %29 = load ptr, ptr %28, align 8
  %30 = load i32, ptr %22, align 4
  %31 = call ptr @Gia_ManObj(ptr noundef %29, i32 noundef %30)
  store ptr %31, ptr %23, align 8
  %32 = load ptr, ptr %5, align 8
  %33 = getelementptr inbounds %struct.Bal_Man_t_, ptr %32, i32 0, i32 5
  %34 = load ptr, ptr %33, align 8
  %35 = load ptr, ptr %23, align 8
  %36 = call i32 @Gia_ObjIsMux(ptr noundef %34, ptr noundef %35)
  store i32 %36, ptr %24, align 4
  %37 = load i32, ptr %22, align 4
  %38 = load ptr, ptr %5, align 8
  %39 = getelementptr inbounds %struct.Bal_Man_t_, ptr %38, i32 0, i32 7
  %40 = load ptr, ptr %39, align 8
  %41 = call i32 @Vec_PtrSize(ptr noundef %40)
  %42 = icmp slt i32 %37, %41
  br i1 %42, label %43, label %44

43:                                               ; preds = %3
  store i32 -1, ptr %4, align 4
  br label %143

44:                                               ; preds = %3
  %45 = load ptr, ptr %23, align 8
  %46 = load i32, ptr %22, align 4
  %47 = call i32 @Gia_ObjFaninId0(ptr noundef %45, i32 noundef %46)
  store i32 %47, ptr %8, align 4
  %48 = load ptr, ptr %23, align 8
  %49 = load i32, ptr %22, align 4
  %50 = call i32 @Gia_ObjFaninId1(ptr noundef %48, i32 noundef %49)
  store i32 %50, ptr %9, align 4
  %51 = load i32, ptr %24, align 4
  %52 = icmp ne i32 %51, 0
  br i1 %52, label %53, label %59

53:                                               ; preds = %44
  %54 = load ptr, ptr %5, align 8
  %55 = getelementptr inbounds %struct.Bal_Man_t_, ptr %54, i32 0, i32 5
  %56 = load ptr, ptr %55, align 8
  %57 = load i32, ptr %22, align 4
  %58 = call i32 @Gia_ObjFaninId2(ptr noundef %56, i32 noundef %57)
  br label %60

59:                                               ; preds = %44
  br label %60

60:                                               ; preds = %59, %53
  %61 = phi i32 [ %58, %53 ], [ 0, %59 ]
  store i32 %61, ptr %10, align 4
  %62 = load ptr, ptr %23, align 8
  %63 = call i32 @Gia_ObjFaninC0(ptr noundef %62)
  store i32 %63, ptr %12, align 4
  %64 = load ptr, ptr %23, align 8
  %65 = call i32 @Gia_ObjFaninC1(ptr noundef %64)
  store i32 %65, ptr %13, align 4
  %66 = load i32, ptr %24, align 4
  %67 = icmp ne i32 %66, 0
  br i1 %67, label %68, label %74

68:                                               ; preds = %60
  %69 = load ptr, ptr %5, align 8
  %70 = getelementptr inbounds %struct.Bal_Man_t_, ptr %69, i32 0, i32 5
  %71 = load ptr, ptr %70, align 8
  %72 = load ptr, ptr %23, align 8
  %73 = call i32 @Gia_ObjFaninC2(ptr noundef %71, ptr noundef %72)
  br label %75

74:                                               ; preds = %60
  br label %75

75:                                               ; preds = %74, %68
  %76 = phi i32 [ %73, %68 ], [ 0, %74 ]
  store i32 %76, ptr %14, align 4
  %77 = load ptr, ptr %5, align 8
  %78 = load i32, ptr %8, align 4
  %79 = call i32 @Bal_ObjDelay(ptr noundef %77, i32 noundef %78)
  store i32 %79, ptr %18, align 4
  %80 = load ptr, ptr %5, align 8
  %81 = load i32, ptr %9, align 4
  %82 = call i32 @Bal_ObjDelay(ptr noundef %80, i32 noundef %81)
  store i32 %82, ptr %19, align 4
  %83 = load ptr, ptr %5, align 8
  %84 = load i32, ptr %10, align 4
  %85 = call i32 @Bal_ObjDelay(ptr noundef %83, i32 noundef %84)
  store i32 %85, ptr %20, align 4
  %86 = load i32, ptr %18, align 4
  %87 = load i32, ptr %19, align 4
  %88 = load i32, ptr %20, align 4
  %89 = call i32 @Abc_MaxInt(i32 noundef %87, i32 noundef %88)
  %90 = call i32 @Abc_MaxInt(i32 noundef %86, i32 noundef %89)
  store i32 %90, ptr %21, align 4
  %91 = load i32, ptr %18, align 4
  %92 = load i32, ptr %21, align 4
  %93 = icmp ne i32 %91, %92
  %94 = zext i1 %93 to i32
  store i32 %94, ptr %15, align 4
  %95 = load i32, ptr %19, align 4
  %96 = load i32, ptr %21, align 4
  %97 = icmp ne i32 %95, %96
  %98 = zext i1 %97 to i32
  store i32 %98, ptr %16, align 4
  %99 = load i32, ptr %20, align 4
  %100 = load i32, ptr %21, align 4
  %101 = icmp ne i32 %99, %100
  %102 = zext i1 %101 to i32
  store i32 %102, ptr %17, align 4
  %103 = load i32, ptr %21, align 4
  %104 = icmp sgt i32 %103, 0
  br i1 %104, label %105, label %125

105:                                              ; preds = %75
  %106 = load ptr, ptr %5, align 8
  %107 = load i32, ptr %8, align 4
  %108 = load i32, ptr %9, align 4
  %109 = load i32, ptr %10, align 4
  %110 = load i32, ptr %12, align 4
  %111 = load i32, ptr %13, align 4
  %112 = load i32, ptr %14, align 4
  %113 = load i32, ptr %15, align 4
  %114 = load i32, ptr %16, align 4
  %115 = load i32, ptr %17, align 4
  %116 = load ptr, ptr %23, align 8
  %117 = call i32 @Gia_ObjIsXor(ptr noundef %116)
  %118 = load i32, ptr %21, align 4
  %119 = call i32 @Bal_ManDeriveCuts(ptr noundef %106, i32 noundef %107, i32 noundef %108, i32 noundef %109, i32 noundef %110, i32 noundef %111, i32 noundef %112, i32 noundef %113, i32 noundef %114, i32 noundef %115, i32 noundef %117, i32 noundef %118, i32 noundef 1)
  store i32 %119, ptr %11, align 4
  %120 = load i32, ptr %11, align 4
  %121 = icmp sge i32 %120, 0
  br i1 %121, label %122, label %124

122:                                              ; preds = %105
  %123 = load i32, ptr %11, align 4
  store i32 %123, ptr %4, align 4
  br label %143

124:                                              ; preds = %105
  br label %125

125:                                              ; preds = %124, %75
  %126 = load i32, ptr %21, align 4
  %127 = add nsw i32 %126, 1
  store i32 %127, ptr %21, align 4
  store i32 1, ptr %17, align 4
  store i32 1, ptr %16, align 4
  store i32 1, ptr %15, align 4
  %128 = load ptr, ptr %5, align 8
  %129 = load i32, ptr %8, align 4
  %130 = load i32, ptr %9, align 4
  %131 = load i32, ptr %10, align 4
  %132 = load i32, ptr %12, align 4
  %133 = load i32, ptr %13, align 4
  %134 = load i32, ptr %14, align 4
  %135 = load i32, ptr %15, align 4
  %136 = load i32, ptr %16, align 4
  %137 = load i32, ptr %17, align 4
  %138 = load ptr, ptr %23, align 8
  %139 = call i32 @Gia_ObjIsXor(ptr noundef %138)
  %140 = load i32, ptr %21, align 4
  %141 = call i32 @Bal_ManDeriveCuts(ptr noundef %128, i32 noundef %129, i32 noundef %130, i32 noundef %131, i32 noundef %132, i32 noundef %133, i32 noundef %134, i32 noundef %135, i32 noundef %136, i32 noundef %137, i32 noundef %139, i32 noundef %140, i32 noundef 1)
  store i32 %141, ptr %11, align 4
  %142 = load i32, ptr %11, align 4
  store i32 %142, ptr %4, align 4
  br label %143

143:                                              ; preds = %125, %122, %43
  %144 = load i32, ptr %4, align 4
  ret i32 %144
}