; Function Attrs: nounwind uwtable
define i32 @Bal_ManSetGateLevel(ptr noundef readonly captures(none) %0, ptr readnone captures(none) %1, i32 noundef %2) local_unnamed_addr #0 {
  %4 = ashr i32 %2, 1
  %5 = getelementptr inbounds nuw i8, ptr %0, i64 24
  %6 = load ptr, ptr %5, align 8
  %7 = getelementptr i8, ptr %6, i64 32
  %.val69 = load ptr, ptr %7, align 8
  %8 = sext i32 %4 to i64
  %9 = getelementptr inbounds %struct.Gia_Obj_t_, ptr %.val69, i64 %8
  %10 = getelementptr i8, ptr %6, i64 40
  %.val71 = load ptr, ptr %10, align 8
  %.not.i.i = icmp eq ptr %.val71, null
  br i1 %.not.i.i, label %Gia_ObjIsMux.exit, label %11

11:                                               ; preds = %3
  %12 = shl nsw i64 %8, 2
  %13 = getelementptr inbounds i8, ptr %.val71, i64 %12
  %14 = load i32, ptr %13, align 4
  %.not87 = icmp eq i32 %14, 0
  br label %Gia_ObjIsMux.exit

Gia_ObjIsMux.exit:                                ; preds = %3, %11
  %.not = phi i1 [ true, %3 ], [ %.not87, %11 ]
  %15 = getelementptr inbounds nuw i8, ptr %0, i64 40
  %16 = load ptr, ptr %15, align 8
  %17 = getelementptr i8, ptr %16, i64 4
  %.val = load i32, ptr %17, align 4
  %18 = icmp slt i32 %4, %.val
  br i1 %18, label %58, label %19

19:                                               ; preds = %Gia_ObjIsMux.exit
  %.val72 = load i64, ptr %9, align 4
  %20 = trunc i64 %.val72 to i32
  %21 = and i32 %20, 536870911
  %22 = sub nsw i32 %4, %21
  %23 = lshr i64 %.val72, 32
  %24 = trunc nuw i64 %23 to i32
  %25 = and i32 %24, 536870911
  %26 = sub nsw i32 %4, %25
  %brmerge = or i1 %.not.i.i, %.not
  %not..not = xor i1 %.not, true
  %.mux = sext i1 %not..not to i32
  br i1 %brmerge, label %Gia_ObjFaninC2.exit, label %27

27:                                               ; preds = %19
  %28 = getelementptr inbounds i32, ptr %.val71, i64 %8
  %29 = load i32, ptr %28, align 4
  %.not5.i = icmp eq i32 %29, 0
  %30 = ashr i32 %29, 1
  %spec.select.i = select i1 %.not5.i, i32 -1, i32 %30
  br label %Gia_ObjFaninC2.exit

Gia_ObjFaninC2.exit:                              ; preds = %19, %27
  %31 = phi i32 [ %spec.select.i, %27 ], [ %.mux, %19 ]
  %32 = getelementptr i8, ptr %0, i64 32
  %.val66 = load ptr, ptr %32, align 8
  %33 = getelementptr i8, ptr %.val66, i64 8
  %.val66.val = load ptr, ptr %33, align 8
  %34 = sext i32 %22 to i64
  %35 = getelementptr inbounds i32, ptr %.val66.val, i64 %34
  %36 = load i32, ptr %35, align 4
  %37 = ashr i32 %36, 4
  %38 = sext i32 %26 to i64
  %39 = getelementptr inbounds i32, ptr %.val66.val, i64 %38
  %40 = load i32, ptr %39, align 4
  %41 = ashr i32 %40, 4
  %42 = sext i32 %31 to i64
  %43 = getelementptr inbounds i32, ptr %.val66.val, i64 %42
  %44 = load i32, ptr %43, align 4
  %45 = ashr i32 %44, 4
  %46 = tail call noundef i32 @llvm.smax.i32(i32 %41, i32 %45)
  %47 = tail call noundef i32 @llvm.smax.i32(i32 %37, i32 %46)
  %48 = icmp sgt i32 %47, 0
  br i1 %48, label %Gia_ObjIsXor.exit, label %Gia_ObjIsXor.exit84

Gia_ObjIsXor.exit:                                ; preds = %Gia_ObjFaninC2.exit
  %49 = icmp ne i32 %45, %47
  %50 = zext i1 %49 to i32
  %51 = icmp ne i32 %41, %47
  %52 = zext i1 %51 to i32
  %53 = icmp slt i32 %37, %46
  %54 = zext i1 %53 to i32
  %55 = tail call i32 @Bal_ManDeriveCuts(ptr noundef nonnull %0, i32 noundef %22, i32 noundef %26, i32 noundef %31, i32 poison, i32 poison, i32 poison, i32 noundef %54, i32 noundef %52, i32 noundef %50, i32 poison, i32 poison, i32 noundef 1)
  %56 = icmp sgt i32 %55, -1
  br i1 %56, label %58, label %Gia_ObjIsXor.exit84

Gia_ObjIsXor.exit84:                              ; preds = %Gia_ObjIsXor.exit, %Gia_ObjFaninC2.exit
  %57 = tail call i32 @Bal_ManDeriveCuts(ptr noundef nonnull %0, i32 noundef %22, i32 noundef %26, i32 noundef %31, i32 poison, i32 poison, i32 poison, i32 noundef 1, i32 noundef 1, i32 noundef 1, i32 poison, i32 poison, i32 noundef 1)
  br label %58

58:                                               ; preds = %Gia_ObjIsXor.exit, %Gia_ObjIsMux.exit, %Gia_ObjIsXor.exit84
  %.0 = phi i32 [ %57, %Gia_ObjIsXor.exit84 ], [ -1, %Gia_ObjIsMux.exit ], [ %55, %Gia_ObjIsXor.exit ]
  ret i32 %.0
}